; Function Attrs: nounwind uwtable
define noalias noundef nonnull ptr @l_Lean_Server_FileWorker_handleFoldingRange_addCommandRange___lambda__1(ptr noundef %0, ptr noundef %1, ptr noundef readnone captures(none) %2, ptr noundef %3, ptr noundef readnone captures(none) %4, ptr noundef %5) local_unnamed_addr #0 {
  %7 = tail call ptr @l_Lean_Syntax_getPos_x3f(ptr noundef %1, i8 noundef zeroext 0) #8
  %8 = tail call ptr @l_Lean_Syntax_getTailPos_x3f(ptr noundef %1, i8 noundef zeroext 0) #8
  %9 = tail call ptr @l_Lean_Server_FileWorker_handleFoldingRange_addRange(ptr noundef %0, i8 noundef zeroext 2, ptr noundef %7, ptr noundef %8, ptr noundef %3, ptr readnone poison, ptr noundef %5)
  %10 = ptrtoint ptr %7 to i64
  %11 = and i64 %10, 1
  %.not.i = icmp eq i64 %11, 0
  br i1 %.not.i, label %12, label %l_Lean_Server_FileWorker_handleFoldingRange_addRangeFromSyntax.exit

12:                                               ; preds = %6
  %13 = load i32, ptr %7, align 4, !tbaa !4
  %14 = icmp sgt i32 %13, 1
  br i1 %14, label %15, label %17, !prof !9

15:                                               ; preds = %12
  %16 = add nsw i32 %13, -1
  store i32 %16, ptr %7, align 4, !tbaa !4
  br label %l_Lean_Server_FileWorker_handleFoldingRange_addRangeFromSyntax.exit

17:                                               ; preds = %12
  %.not.i.i = icmp eq i32 %13, 0
  br i1 %.not.i.i, label %l_Lean_Server_FileWorker_handleFoldingRange_addRangeFromSyntax.exit, label %18

18:                                               ; preds = %17
  tail call void @lean_dec_ref_cold(ptr noundef nonnull %7) #8
  br label %l_Lean_Server_FileWorker_handleFoldingRange_addRangeFromSyntax.exit

l_Lean_Server_FileWorker_handleFoldingRange_addRangeFromSyntax.exit: ; preds = %6, %15, %17, %18
  ret ptr %9
}